target datalayout = "e-m:e-p270:32:32-p271:32:32-p272:64:64-i64:64-i128:128-f80:128-n8:16:32:64-S128"
target triple = "x86_64-unknown-linux-gnu"

@_ZTIN6icu_758TimeZoneE = external constant ptr
@_ZTIN6icu_7513BasicTimeZoneE = external constant ptr

; Function Attrs: mustprogress uwtable
define linkonce_odr noundef double @_ZNK6icu_758Calendar7getTimeER10UErrorCode(ptr noundef nonnull align 8 dereferenceable(618) %this, ptr noundef nonnull align 4 dereferenceable(4) %status) #1 comdat align 2 {
entry:
  %this.addr = alloca ptr, align 8
  %status.addr = alloca ptr, align 8
  store ptr %this, ptr %this.addr, align 8
  store ptr %status, ptr %status.addr, align 8
  %this1 = load ptr, ptr %this.addr, align 8
  %0 = load ptr, ptr %status.addr, align 8
  %call = call noundef double @_ZNK6icu_758Calendar15getTimeInMillisER10UErrorCode(ptr noundef nonnull align 8 dereferenceable(618) %this1, ptr noundef nonnull align 4 dereferenceable(4) %0)
  ret double %call
}

; Function Attrs: mustprogress nounwind uwtable
define internal noundef signext i8 @_ZL9U_FAILURE10UErrorCode(i32 noundef %code) #0 {
entry:
  %code.addr = alloca i32, align 4
  store i32 %code, ptr %code.addr, align 4
  %0 = load i32, ptr %code.addr, align 4
  %cmp = icmp sgt i32 %0, 0
  %conv = zext i1 %cmp to i8
  ret i8 %conv
}

; Function Attrs: mustprogress uwtable
define void @ucal_getTimeZoneOffsetFromLocal_75(ptr noundef %cal, i32 noundef %nonExistingTimeOpt, i32 noundef %duplicatedTimeOpt, ptr noundef %rawOffset, ptr noundef %dstOffset, ptr noundef %status) #1 {
entry:
  %cal.addr = alloca ptr, align 8
  %nonExistingTimeOpt.addr = alloca i32, align 4
  %duplicatedTimeOpt.addr = alloca i32, align 4
  %rawOffset.addr = alloca ptr, align 8
  %dstOffset.addr = alloca ptr, align 8
  %status.addr = alloca ptr, align 8
  %date = alloca double, align 8
  %tz = alloca ptr, align 8
  %btz = alloca ptr, align 8
  store ptr %cal, ptr %cal.addr, align 8
  store i32 %nonExistingTimeOpt, ptr %nonExistingTimeOpt.addr, align 4
  store i32 %duplicatedTimeOpt, ptr %duplicatedTimeOpt.addr, align 4
  store ptr %rawOffset, ptr %rawOffset.addr, align 8
  store ptr %dstOffset, ptr %dstOffset.addr, align 8
  store ptr %status, ptr %status.addr, align 8
  %0 = load ptr, ptr %status.addr, align 8
  %1 = load i32, ptr %0, align 4
  %call = call noundef signext i8 @_ZL9U_FAILURE10UErrorCode(i32 noundef %1)
  %tobool = icmp ne i8 %call, 0
  br i1 %tobool, label %if.then, label %if.end

if.then:                                          ; preds = %entry
  br label %return

if.end:                                           ; preds = %entry
  %2 = load ptr, ptr %cal.addr, align 8
  %3 = load ptr, ptr %status.addr, align 8
  %call1 = call noundef double @_ZNK6icu_758Calendar7getTimeER10UErrorCode(ptr noundef nonnull align 8 dereferenceable(618) %2, ptr noundef nonnull align 4 dereferenceable(4) %3)
  store double %call1, ptr %date, align 8
  %4 = load ptr, ptr %status.addr, align 8
  %5 = load i32, ptr %4, align 4
  %call2 = call noundef signext i8 @_ZL9U_FAILURE10UErrorCode(i32 noundef %5)
  %tobool3 = icmp ne i8 %call2, 0
  br i1 %tobool3, label %if.then4, label %if.end5

if.then4:                                         ; preds = %if.end
  br label %return

if.end5:                                          ; preds = %if.end
  %6 = load ptr, ptr %cal.addr, align 8
  %call6 = call noundef nonnull align 8 dereferenceable(72) ptr @_ZNK6icu_758Calendar11getTimeZoneEv(ptr noundef nonnull align 8 dereferenceable(618) %6)
  store ptr %call6, ptr %tz, align 8
  %7 = load ptr, ptr %tz, align 8
  %8 = icmp eq ptr %7, null
  br i1 %8, label %dynamic_cast.null, label %dynamic_cast.notnull

dynamic_cast.notnull:                             ; preds = %if.end5
  %9 = call ptr @__dynamic_cast(ptr %7, ptr @_ZTIN6icu_758TimeZoneE, ptr @_ZTIN6icu_7513BasicTimeZoneE, i64 0) #9
  br label %dynamic_cast.end

dynamic_cast.null:                                ; preds = %if.end5
  br label %dynamic_cast.end

dynamic_cast.end:                                 ; preds = %dynamic_cast.null, %dynamic_cast.notnull
  %10 = phi ptr [ %9, %dynamic_cast.notnull ], [ null, %dynamic_cast.null ]
  store ptr %10, ptr %btz, align 8
  %11 = load ptr, ptr %btz, align 8
  %cmp = icmp eq ptr %11, null
  br i1 %cmp, label %if.then7, label %if.end8

if.then7:                                         ; preds = %dynamic_cast.end
  %12 = load ptr, ptr %status.addr, align 8
  store i32 1, ptr %12, align 4
  br label %return

if.end8:                                          ; preds = %dynamic_cast.end
  %13 = load ptr, ptr %btz, align 8
  %14 = load double, ptr %date, align 8
  %15 = load i32, ptr %nonExistingTimeOpt.addr, align 4
  %16 = load i32, ptr %duplicatedTimeOpt.addr, align 4
  %17 = load ptr, ptr %rawOffset.addr, align 8
  %18 = load ptr, ptr %dstOffset.addr, align 8
  %19 = load ptr, ptr %status.addr, align 8
  %vtable = load ptr, ptr %13, align 8
  %vfn = getelementptr inbounds ptr, ptr %vtable, i64 20
  %20 = load ptr, ptr %vfn, align 8
  call void %20(ptr noundef nonnull align 8 dereferenceable(72) %13, double noundef %14, i32 noundef %15, i32 noundef %16, ptr noundef nonnull align 4 dereferenceable(4) %17, ptr noundef nonnull align 4 dereferenceable(4) %18, ptr noundef nonnull align 4 dereferenceable(4) %19)
  br label %return

return:                                           ; preds = %if.end8, %if.then7, %if.then4, %if.then
  ret void
}