; Function Attrs: mustprogress uwtable
define void @ucal_getTimeZoneOffsetFromLocal_75(ptr noundef %cal, i32 noundef %nonExistingTimeOpt, i32 noundef %duplicatedTimeOpt, ptr noundef %rawOffset, ptr noundef %dstOffset, ptr noundef %status) local_unnamed_addr #1 {
entry:
  %0 = load i32, ptr %status, align 4
  %cmp.i = icmp slt i32 %0, 1
  br i1 %cmp.i, label %if.end, label %return

if.end:                                           ; preds = %entry
  %call.i = tail call noundef double @_ZNK6icu_758Calendar15getTimeInMillisER10UErrorCode(ptr noundef nonnull align 8 dereferenceable(618) %cal, ptr noundef nonnull align 4 dereferenceable(4) %status)
  %1 = load i32, ptr %status, align 4
  %cmp.i7 = icmp slt i32 %1, 1
  br i1 %cmp.i7, label %if.end5, label %return

if.end5:                                          ; preds = %if.end
  %call6 = tail call noundef nonnull align 8 dereferenceable(72) ptr @_ZNK6icu_758Calendar11getTimeZoneEv(ptr noundef nonnull align 8 dereferenceable(618) %cal)
  %2 = tail call ptr @__dynamic_cast(ptr nonnull %call6, ptr nonnull @_ZTIN6icu_758TimeZoneE, ptr nonnull @_ZTIN6icu_7513BasicTimeZoneE, i64 0) #11
  %cmp = icmp eq ptr %2, null
  br i1 %cmp, label %if.then7, label %if.end8

if.then7:                                         ; preds = %if.end5
  store i32 1, ptr %status, align 4
  br label %return

if.end8:                                          ; preds = %if.end5
  %vtable = load ptr, ptr %2, align 8
  %vfn = getelementptr inbounds i8, ptr %vtable, i64 160
  %3 = load ptr, ptr %vfn, align 8
  tail call void %3(ptr noundef nonnull align 8 dereferenceable(72) %2, double noundef %call.i, i32 noundef %nonExistingTimeOpt, i32 noundef %duplicatedTimeOpt, ptr noundef nonnull align 4 dereferenceable(4) %rawOffset, ptr noundef nonnull align 4 dereferenceable(4) %dstOffset, ptr noundef nonnull align 4 dereferenceable(4) %status)
  br label %return

return:                                           ; preds = %if.end, %entry, %if.end8, %if.then7
  ret void
}